(dp0
L0L
(dp1
S'salary'
p2
F201955.0
sS'to_messages'
p3
F2902.0
sS'name'
p4
S'ALLEN PHILLIP K'
p5
sS'long_term_incentive'
p6
F304805.0
sS'bonus'
p7
F4175000.0
sS'fraction_emails_to_poi'
p8
F0.021907650825749917
sS'total_stock_value'
p9
F1729541.0
sS'expenses'
p10
F13868.0
sS'exercised_stock_options'
p11
F1729541.0
sS'from_messages'
p12
F2195.0
sS'other'
p13
F152.0
sS'from_this_person_to_poi'
p14
F65.0
sS'poi'
p15
I00
sS'total_payments'
p16
F4484442.0
sS'deferred_income'
p17
F-3081055.0
sS'shared_receipt_with_poi'
p18
F1407.0
sS'restricted_stock'
p19
F126027.0
sS'from_poi_to_this_person'
p20
F47.0
sS'fraction_emails_from_poi'
p21
F0.02096342551293488
ssL1L
(dp22
g2
F0.0
sg3
F0.0
sg4
S'BADUM JAMES P'
p23
sg6
F0.0
sg7
F0.0
sg8
F0.0
sg9
F257817.0
sg10
F3486.0
sg11
F257817.0
sg12
F0.0
sg13
F0.0
sg14
F0.0
sg15
I00
sg16
F182466.0
sg17
F0.0
sg18
F0.0
sg19
F0.0
sg20
F0.0
sg21
F0.0
ssL2L
(dp24
g2
F477.0
sg3
F566.0
sg4
S'BANNANTINE JAMES M'
p25
sg6
F0.0
sg7
F0.0
sg8
F0.0
sg9
F5243487.0
sg10
F56301.0
sg11
F4046157.0
sg12
F29.0
sg13
F864523.0
sg14
F0.0
sg15
I00
sg16
F916197.0
sg17
F-5104.0
sg18
F465.0
sg19
F1757552.0
sg20
F39.0
sg21
F0.5735294117647058
ssL3L
(dp26
g2
F267102.0
sg3
F0.0
sg4
S'BAXTER JOHN C'
p27
sg6
F1586055.0
sg7
F1200000.0
sg8
F0.0
sg9
F10623258.0
sg10
F11200.0
sg11
F6680544.0
sg12
F0.0
sg13
F2660303.0
sg14
F0.0
sg15
I00
sg16
F5634343.0
sg17
F-1386055.0
sg18
F0.0
sg19
F3942714.0
sg20
F0.0
sg21
F0.0
ssL4L
(dp28
g2
F239671.0
sg3
F0.0
sg4
S'BAY FRANKLIN R'
p29
sg6
F0.0
sg7
F400000.0
sg8
F0.0
sg9
F63014.0
sg10
F129142.0
sg11
F0.0
sg12
F0.0
sg13
F69.0
sg14
F0.0
sg15
I00
sg16
F827696.0
sg17
F-201641.0
sg18
F0.0
sg19
F145796.0
sg20
F0.0
sg21
F0.0
ssL5L
(dp30
g2
F80818.0
sg3
F0.0
sg4
S'BAZELIDES PHILIP J'
p31
sg6
F93750.0
sg7
F0.0
sg8
F0.0
sg9
F1599641.0
sg10
F0.0
sg11
F1599641.0
sg12
F0.0
sg13
F874.0
sg14
F0.0
sg15
I00
sg16
F860136.0
sg17
F0.0
sg18
F0.0
sg19
F0.0
sg20
F0.0
sg21
F0.0
ssL6L
(dp32
g2
F231330.0
sg3
F7315.0
sg4
S'BECK SALLY W'
p33
sg6
F0.0
sg7
F700000.0
sg8
F0.05012336060251915
sg9
F126027.0
sg10
F37172.0
sg11
F0.0
sg12
F4343.0
sg13
F566.0
sg14
F386.0
sg15
I00
sg16
F969068.0
sg17
F0.0
sg18
F2639.0
sg19
F126027.0
sg20
F144.0
sg21
F0.03209271227991977
ssL7L
(dp34
g2
F213999.0
sg3
F7991.0
sg4
S'BELDEN TIMOTHY N'
p35
sg6
F0.0
sg7
F5249999.0
sg8
F0.013334979627114458
sg9
F1110705.0
sg10
F17355.0
sg11
F953136.0
sg12
F484.0
sg13
F210698.0
sg14
F108.0
sg15
I01
sg16
F5501630.0
sg17
F-2334434.0
sg18
F5521.0
sg19
F157569.0
sg20
F228.0
sg21
F0.3202247191011236
ssL8L
(dp36
g2
F0.0
sg3
F0.0
sg4
S'BELFER ROBERT'
p37
sg6
F0.0
sg7
F0.0
sg8
F0.0
sg9
F-44093.0
sg10
F0.0
sg11
F3285.0
sg12
F0.0
sg13
F0.0
sg14
F0.0
sg15
I00
sg16
F102500.0
sg17
F0.0
sg18
F0.0
sg19
F0.0
sg20
F0.0
sg21
F0.0
ssL9L
(dp38
g2
F216582.0
sg3
F0.0
sg4
S'BERBERIAN DAVID'
p39
sg6
F0.0
sg7
F0.0
sg8
F0.0
sg9
F2493616.0
sg10
F11892.0
sg11
F1624396.0
sg12
F0.0
sg13
F0.0
sg14
F0.0
sg15
I00
sg16
F228474.0
sg17
F0.0
sg18
F0.0
sg19
F869220.0
sg20
F0.0
sg21
F0.0
ssL10L
(dp40
g2
F187922.0
sg3
F383.0
sg4
S'BERGSIEKER RICHARD P'
p41
sg6
F180250.0
sg7
F250000.0
sg8
F0.0
sg9
F659249.0
sg10
F59175.0
sg11
F0.0
sg12
F59.0
sg13
F427316.0
sg14
F0.0
sg15
I00
sg16
F618850.0
sg17
F-485813.0
sg18
F233.0
sg19
F659249.0
sg20
F4.0
sg21
F0.06349206349206349
ssL11L
(dp42
g2
F0.0
sg3
F523.0
sg4
S'BHATNAGAR SANJAY'
p43
sg6
F0.0
sg7
F0.0
sg8
F0.0019083969465648854
sg9
F0.0
sg10
F0.0
sg11
F2604490.0
sg12
F29.0
sg13
F137864.0
sg14
F1.0
sg15
I00
sg16
F15456290.0
sg17
F0.0
sg18
F463.0
sg19
F-2604490.0
sg20
F0.0
sg21
F0.0
ssL12L
(dp44
g2
F213625.0
sg3
F1607.0
sg4
S'BIBI PHILIPPE A'
p45
sg6
F369721.0
sg7
F1000000.0
sg8
F0.004953560371517028
sg9
F1843816.0
sg10
F38559.0
sg11
F1465734.0
sg12
F40.0
sg13
F425688.0
sg14
F8.0
sg15
I00
sg16
F2047593.0
sg17
F0.0
sg18
F1336.0
sg19
F378082.0
sg20
F23.0
sg21
F0.36507936507936506
ssL13L
(dp46
g2
F248546.0
sg3
F2475.0
sg4
S'BLACHMAN JEREMY M'
p47
sg6
F831809.0
sg7
F850000.0
sg8
F0.0008074283407347598
sg9
F954354.0
sg10
F84208.0
sg11
F765313.0
sg12
F14.0
sg13
F272.0
sg14
F2.0
sg15
I00
sg16
F2014835.0
sg17
F0.0
sg18
F2326.0
sg19
F189041.0
sg20
F25.0
sg21
F0.6410256410256411
ssL14L
(dp48
g2
F0.0
sg3
F0.0
sg4
S'BLAKE JR. NORMAN P'
p49
sg6
F0.0
sg7
F0.0
sg8
F0.0
sg9
F0.0
sg10
F1279.0
sg11
F0.0
sg12
F0.0
sg13
F0.0
sg14
F0.0
sg15
I00
sg16
F1279.0
sg17
F-113784.0
sg18
F0.0
sg19
F0.0
sg20
F0.0
sg21
F0.0
ssL15L
(dp50
g2
F278601.0
sg3
F1858.0
sg4
S'BOWEN JR RAYMOND M'
p51
sg6
F974293.0
sg7
F1350000.0
sg8
F0.00800854244527496
sg9
F252055.0
sg10
F65907.0
sg11
F0.0
sg12
F27.0
sg13
F1621.0
sg14
F15.0
sg15
I01
sg16
F2669589.0
sg17
F-833.0
sg18
F1593.0
sg19
F252055.0
sg20
F140.0
sg21
F0.8383233532934131
ssL16L
(dp52
g2
F0.0
sg3
F1486.0
sg4
S'BROWN MICHAEL'
p53
sg6
F0.0
sg7
F0.0
sg8
F0.0006724949562878278
sg9
F0.0
sg10
F49288.0
sg11
F0.0
sg12
F41.0
sg13
F0.0
sg14
F1.0
sg15
I00
sg16
F49288.0
sg17
F0.0
sg18
F761.0
sg19
F0.0
sg20
F13.0
sg21
F0.24074074074074073
ssL17L
(dp54
g2
F248017.0
sg3
F1088.0
sg4
S'BUCHANAN HAROLD G'
p55
sg6
F304805.0
sg7
F500000.0
sg8
F0.0
sg9
F1014505.0
sg10
F600.0
sg11
F825464.0
sg12
F125.0
sg13
F1215.0
sg14
F0.0
sg15
I00
sg16
F1054637.0
sg17
F0.0
sg18
F23.0
sg19
F189041.0
sg20
F0.0
sg21
F0.0
ssL18L
(dp56
g2
F261516.0
sg3
F0.0
sg4
S'BUTTS ROBERT H'
p57
sg6
F175000.0
sg7
F750000.0
sg8
F0.0
sg9
F417619.0
sg10
F9410.0
sg11
F0.0
sg12
F0.0
sg13
F150656.0
sg14
F0.0
sg15
I00
sg16
F1271582.0
sg17
F-75000.0
sg18
F0.0
sg19
F417619.0
sg20
F0.0
sg21
F0.0
ssL19L
(dp58
g2
F330546.0
sg3
F3523.0
sg4
S'BUY RICHARD B'
p59
sg6
F769862.0
sg7
F900000.0
sg8
F0.019755147468002224
sg9
F3444470.0
sg10
F0.0
sg11
F2542813.0
sg12
F1053.0
sg13
F400572.0
sg14
F71.0
sg15
I00
sg16
F2355702.0
sg17
F-694862.0
sg18
F2333.0
sg19
F901657.0
sg20
F156.0
sg21
F0.12903225806451613
ssL20L
(dp60
g2
F240189.0
sg3
F2598.0
sg4
S'CALGER CHRISTOPHER F'
p61
sg6
F375304.0
sg7
F1250000.0
sg8
F0.009531071292413268
sg9
F126027.0
sg10
F35818.0
sg11
F0.0
sg12
F144.0
sg13
F486.0
sg14
F25.0
sg15
I01
sg16
F1639297.0
sg17
F-262500.0
sg18
F2188.0
sg19
F126027.0
sg20
F199.0
sg21
F0.5801749271137027
ssL21L
(dp62
g2
F261809.0
sg3
F312.0
sg4
S'CARTER REBECCA C'
p63
sg6
F75000.0
sg7
F300000.0
sg8
F0.0219435736677116
sg9
F0.0
sg10
F0.0
sg11
F0.0
sg12
F15.0
sg13
F540.0
sg14
F7.0
sg15
I00
sg16
F477557.0
sg17
F-159792.0
sg18
F196.0
sg19
F307301.0
sg20
F29.0
sg21
F0.6590909090909091
ssL22L
(dp64
g2
F415189.0
sg3
F1892.0
sg4
S'CAUSEY RICHARD A'
p65
sg6
F350000.0
sg7
F1000000.0
sg8
F0.0063025210084033615
sg9
F2502063.0
sg10
F30674.0
sg11
F0.0
sg12
F49.0
sg13
F307895.0
sg14
F12.0
sg15
I01
sg16
F1868758.0
sg17
F-235000.0
sg18
F1585.0
sg19
F2502063.0
sg20
F58.0
sg21
F0.5420560747663551
ssL23L
(dp66
g2
F0.0
sg3
F0.0
sg4
S'CHAN RONNIE'
p67
sg6
F0.0
sg7
F0.0
sg8
F0.0
sg9
F0.0
sg10
F0.0
sg11
F0.0
sg12
F0.0
sg13
F0.0
sg14
F0.0
sg15
I00
sg16
F0.0
sg17
F-98784.0
sg18
F0.0
sg19
F32460.0
sg20
F0.0
sg21
F0.0
ssL24L
(dp68
g2
F0.0
sg3
F0.0
sg4
S'CHRISTODOULOU DIOMEDES'
p69
sg6
F0.0
sg7
F0.0
sg8
F0.0
sg9
F6077885.0
sg10
F0.0
sg11
F5127155.0
sg12
F0.0
sg13
F0.0
sg14
F0.0
sg15
I00
sg16
F0.0
sg17
F0.0
sg18
F0.0
sg19
F950730.0
sg20
F0.0
sg21
F0.0
ssL25L
(dp70
g2
F0.0
sg3
F0.0
sg4
S'CLINE KENNETH W'
p71
sg6
F0.0
sg7
F0.0
sg8
F0.0
sg9
F189518.0
sg10
F0.0
sg11
F0.0
sg12
F0.0
sg13
F0.0
sg14
F0.0
sg15
I00
sg16
F0.0
sg17
F0.0
sg18
F0.0
sg19
F662086.0
sg20
F0.0
sg21
F0.0
ssL26L
(dp72
g2
F288542.0
sg3
F1758.0
sg4
S'COLWELL WESLEY'
p73
sg6
F0.0
sg7
F1200000.0
sg8
F0.006218202374222725
sg9
F698242.0
sg10
F16514.0
sg11
F0.0
sg12
F40.0
sg13
F101740.0
sg14
F11.0
sg15
I01
sg16
F1490344.0
sg17
F-144062.0
sg18
F1132.0
sg19
F698242.0
sg20
F240.0
sg21
F0.8571428571428571
ssL27L
(dp74
g2
F0.0
sg3
F764.0
sg4
S'CORDES WILLIAM R'
p75
sg6
F0.0
sg7
F0.0
sg8
F0.0
sg9
F1038185.0
sg10
F0.0
sg11
F651850.0
sg12
F12.0
sg13
F0.0
sg14
F0.0
sg15
I00
sg16
F0.0
sg17
F0.0
sg18
F58.0
sg19
F386335.0
sg20
F10.0
sg21
F0.45454545454545453
ssL28L
(dp76
g2
F314288.0
sg3
F102.0
sg4
S'COX DAVID'
p77
sg6
F0.0
sg7
F800000.0
sg8
F0.03773584905660377
sg9
F495633.0
sg10
F27861.0
sg11
F117551.0
sg12
F33.0
sg13
F494.0
sg14
F4.0
sg15
I00
sg16
F1101393.0
sg17
F-41250.0
sg18
F71.0
sg19
F378082.0
sg20
F0.0
sg21
F0.0
ssL29L
(dp78
g2
F184899.0
sg3
F0.0
sg4
S'CUMBERLAND MICHAEL S'
p79
sg6
F275000.0
sg7
F325000.0
sg8
F0.0
sg9
F207940.0
sg10
F22344.0
sg11
F0.0
sg12
F0.0
sg13
F713.0
sg14
F0.0
sg15
I00
sg16
F807956.0
sg17
F0.0
sg18
F0.0
sg19
F207940.0
sg20
F0.0
sg21
F0.0
ssL30L
(dp80
g2
F206121.0
sg3
F714.0
sg4
S'DEFFNER JOSEPH M'
p81
sg6
F335349.0
sg7
F600000.0
sg8
F0.005571030640668524
sg9
F159211.0
sg10
F41626.0
sg11
F17378.0
sg12
F74.0
sg13
F25553.0
sg14
F4.0
sg15
I00
sg16
F1208649.0
sg17
F0.0
sg18
F552.0
sg19
F141833.0
sg20
F115.0
sg21
F0.6084656084656085
ssL31L
(dp82
g2
F365163.0
sg3
F3093.0
sg4
S'DELAINEY DAVID W'
p83
sg6
F1294981.0
sg7
F3000000.0
sg8
F0.16450567260940033
sg9
F3614261.0
sg10
F86174.0
sg11
F2291113.0
sg12
F3069.0
sg13
F1661.0
sg14
F609.0
sg15
I01
sg16
F4747979.0
sg17
F0.0
sg18
F2097.0
sg19
F1323148.0
sg20
F66.0
sg21
F0.021052631578947368
ssL32L
(dp84
g2
F492375.0
sg3
F2181.0
sg4
S'DERRICK JR. JAMES V'
p85
sg6
F484000.0
sg7
F800000.0
sg8
F0.009086778736937756
sg9
F8831913.0
sg10
F51124.0
sg11
F8831913.0
sg12
F909.0
sg13
F7482.0
sg14
F20.0
sg15
I00
sg16
F550981.0
sg17
F-1284000.0
sg18
F1401.0
sg19
F1787380.0
sg20
F64.0
sg21
F0.065775950668037
ssL33L
(dp86
g2
F210500.0
sg3
F0.0
sg4
S'DETMERING TIMOTHY J'
p87
sg6
F415657.0
sg7
F425000.0
sg8
F0.0
sg9
F2027865.0
sg10
F52255.0
sg11
F2027865.0
sg12
F0.0
sg13
F1105.0
sg14
F0.0
sg15
I00
sg16
F1204583.0
sg17
F-775241.0
sg18
F0.0
sg19
F315068.0
sg20
F0.0
sg21
F0.0
ssL34L
(dp88
g2
F250100.0
sg3
F2572.0
sg4
S'DIETRICH JANET R'
p89
sg6
F556416.0
sg7
F600000.0
sg8
F0.005413766434648105
sg9
F1865087.0
sg10
F3475.0
sg11
F1550019.0
sg12
F63.0
sg13
F473.0
sg14
F14.0
sg15
I00
sg16
F1410464.0
sg17
F0.0
sg18
F1902.0
sg19
F315068.0
sg20
F305.0
sg21
F0.8288043478260869
ssL35L
(dp90
g2
F262788.0
sg3
F0.0
sg4
S'DIMICHELE RICHARD G'
p91
sg6
F694862.0
sg7
F1000000.0
sg8
F0.0
sg9
F8317782.0
sg10
F35812.0
sg11
F8191755.0
sg12
F0.0
sg13
F374689.0
sg14
F0.0
sg15
I00
sg16
F2368151.0
sg17
F0.0
sg18
F0.0
sg19
F126027.0
sg20
F0.0
sg21
F0.0
ssL36L
(dp92
g2
F221003.0
sg3
F176.0
sg4
S'DODSON KEITH'
p93
sg6
F0.0
sg7
F70000.0
sg8
F0.01675977653631285
sg9
F0.0
sg10
F28164.0
sg11
F0.0
sg12
F14.0
sg13
F774.0
sg14
F3.0
sg15
I00
sg16
F319941.0
sg17
F0.0
sg18
F114.0
sg19
F0.0
sg20
F10.0
sg21
F0.4166666666666667
ssL37L
(dp94
g2
F278601.0
sg3
F865.0
sg4
S'DONAHUE JR JEFFREY M'
p95
sg6
F0.0
sg7
F800000.0
sg8
F0.012557077625570776
sg9
F1080988.0
sg10
F96268.0
sg11
F765920.0
sg12
F22.0
sg13
F891.0
sg14
F11.0
sg15
I00
sg16
F875760.0
sg17
F-300000.0
sg18
F772.0
sg19
F315068.0
sg20
F188.0
sg21
F0.8952380952380953
ssL38L
(dp96
g2
F0.0
sg3
F0.0
sg4
S'DUNCAN JOHN H'
p97
sg6
F0.0
sg7
F0.0
sg8
F0.0
sg9
F371750.0
sg10
F0.0
sg11
F371750.0
sg12
F0.0
sg13
F0.0
sg14
F0.0
sg15
I00
sg16
F77492.0
sg17
F-25000.0
sg18
F0.0
sg19
F0.0
sg20
F0.0
sg21
F0.0
ssL39L
(dp98
g2
F210692.0
sg3
F904.0
sg4
S'DURAN WILLIAM D'
p99
sg6
F1105218.0
sg7
F750000.0
sg8
F0.0033076074972436605
sg9
F1640910.0
sg10
F25785.0
sg11
F1451869.0
sg12
F12.0
sg13
F1568.0
sg14
F3.0
sg15
I00
sg16
F2093263.0
sg17
F0.0
sg18
F599.0
sg19
F189041.0
sg20
F106.0
sg21
F0.8983050847457628
ssL40L
(dp100
g2
F182245.0
sg3
F0.0
sg4
S'ECHOLS JOHN B'
p101
sg6
F2234774.0
sg7
F200000.0
sg8
F0.0
sg9
F1008941.0
sg10
F21530.0
sg11
F601438.0
sg12
F0.0
sg13
F53775.0
sg14
F0.0
sg15
I00
sg16
F2692324.0
sg17
F0.0
sg18
F0.0
sg19
F407503.0
sg20
F0.0
sg21
F0.0
ssL41L
(dp102
g2
F170941.0
sg3
F0.0
sg4
S'ELLIOTT STEVEN'
p103
sg6
F0.0
sg7
F350000.0
sg8
F0.0
sg9
F6678735.0
sg10
F78552.0
sg11
F4890344.0
sg12
F0.0
sg13
F12961.0
sg14
F0.0
sg15
I00
sg16
F211725.0
sg17
F-400729.0
sg18
F0.0
sg19
F1788391.0
sg20
F0.0
sg21
F0.0
ssL42L
(dp104
g2
F304588.0
sg3
F1755.0
sg4
S'FALLON JAMES B'
p105
sg6
F374347.0
sg7
F2500000.0
sg8
F0.020647321428571428
sg9
F2332399.0
sg10
F95924.0
sg11
F940257.0
sg12
F75.0
sg13
F401481.0
sg14
F37.0
sg15
I00
sg16
F3676340.0
sg17
F0.0
sg18
F1604.0
sg19
F1392142.0
sg20
F42.0
sg21
F0.358974358974359
ssL43L
(dp106
g2
F440698.0
sg3
F0.0
sg4
S'FASTOW ANDREW S'
p107
sg6
F1736055.0
sg7
F1300000.0
sg8
F0.0
sg9
F1794412.0
sg10
F55921.0
sg11
F0.0
sg12
F0.0
sg13
F277464.0
sg14
F0.0
sg15
I01
sg16
F2424083.0
sg17
F-1386055.0
sg18
F0.0
sg19
F1794412.0
sg20
F0.0
sg21
F0.0
ssL44L
(dp108
g2
F199157.0
sg3
F936.0
sg4
S'FITZGERALD JAY L'
p109
sg6
F556416.0
sg7
F350000.0
sg8
F0.00847457627118644
sg9
F1621236.0
sg10
F23870.0
sg11
F664461.0
sg12
F16.0
sg13
F285414.0
sg14
F8.0
sg15
I00
sg16
F1414857.0
sg17
F0.0
sg18
F723.0
sg19
F956775.0
sg20
F1.0
sg21
F0.058823529411764705
ssL45L
(dp110
g2
F0.0
sg3
F517.0
sg4
S'FOWLER PEGGY'
p111
sg6
F0.0
sg7
F0.0
sg8
F0.0
sg9
F1884748.0
sg10
F0.0
sg11
F1324578.0
sg12
F36.0
sg13
F0.0
sg14
F0.0
sg15
I00
sg16
F0.0
sg17
F0.0
sg18
F10.0
sg19
F560170.0
sg20
F0.0
sg21
F0.0
ssL46L
(dp112
g2
F0.0
sg3
F57.0
sg4
S'FOY JOE'
p113
sg6
F0.0
sg7
F0.0
sg8
F0.0
sg9
F343434.0
sg10
F0.0
sg11
F343434.0
sg12
F13.0
sg13
F0.0
sg14
F0.0
sg15
I00
sg16
F181755.0
sg17
F0.0
sg18
F2.0
sg19
F0.0
sg20
F0.0
sg21
F0.0
ssL47L
(dp114
g2
F1060932.0
sg3
F3275.0
sg4
S'FREVERT MARK A'
p115
sg6
F1617011.0
sg7
F2000000.0
sg8
F0.001828710758914965
sg9
F14622185.0
sg10
F86987.0
sg11
F10433518.0
sg12
F21.0
sg13
F7427621.0
sg14
F6.0
sg15
I00
sg16
F17252530.0
sg17
F-3367011.0
sg18
F2979.0
sg19
F4188667.0
sg20
F242.0
sg21
F0.9201520912547528
ssL48L
(dp116
g2
F0.0
sg3
F0.0
sg4
S'FUGH JOHN L'
p117
sg6
F0.0
sg7
F0.0
sg8
F0.0
sg9
F176378.0
sg10
F0.0
sg11
F176378.0
sg12
F0.0
sg13
F0.0
sg14
F0.0
sg15
I00
sg16
F50591.0
sg17
F0.0
sg18
F0.0
sg19
F0.0
sg20
F0.0
sg21
F0.0
ssL49L
(dp118
g2
F192008.0
sg3
F0.0
sg4
S'GAHN ROBERT S'
p119
sg6
F0.0
sg7
F509870.0
sg8
F0.0
sg9
F318607.0
sg10
F50080.0
sg11
F83237.0
sg12
F0.0
sg13
F76547.0
sg14
F0.0
sg15
I00
sg16
F900585.0
sg17
F-1042.0
sg18
F0.0
sg19
F235370.0
sg20
F0.0
sg21
F0.0
ssL50L
(dp120
g2
F231946.0
sg3
F209.0
sg4
S'GARLAND C KEVIN'
p121
sg6
F375304.0
sg7
F850000.0
sg8
F0.11440677966101695
sg9
F896153.0
sg10
F48405.0
sg11
F636246.0
sg12
F44.0
sg13
F60814.0
sg14
F27.0
sg15
I00
sg16
F1566469.0
sg17
F0.0
sg18
F178.0
sg19
F259907.0
sg20
F10.0
sg21
F0.18518518518518517
ssL51L
(dp122
g2
F0.0
sg3
F0.0
sg4
S'GATHMANN WILLIAM D'
p123
sg6
F0.0
sg7
F0.0
sg8
F0.0
sg9
F1945360.0
sg10
F0.0
sg11
F1753766.0
sg12
F0.0
sg13
F0.0
sg14
F0.0
sg15
I00
sg16
F0.0
sg17
F0.0
sg18
F0.0
sg19
F264013.0
sg20
F0.0
sg21
F0.0
ssL52L
(dp124
g2
F0.0
sg3
F169.0
sg4
S'GIBBS DANA R'
p125
sg6
F461912.0
sg7
F0.0
sg8
F0.0
sg9
F2218275.0
sg10
F0.0
sg11
F2218275.0
sg12
F12.0
sg13
F0.0
sg14
F0.0
sg15
I00
sg16
F966522.0
sg17
F0.0
sg18
F23.0
sg19
F0.0
sg20
F0.0
sg21
F0.0
ssL53L
(dp126
g2
F0.0
sg3
F0.0
sg4
S'GILLIS JOHN'
p127
sg6
F0.0
sg7
F0.0
sg8
F0.0
sg9
F85641.0
sg10
F0.0
sg11
F9803.0
sg12
F0.0
sg13
F0.0
sg14
F0.0
sg15
I00
sg16
F0.0
sg17
F0.0
sg18
F0.0
sg19
F75838.0
sg20
F0.0
sg21
F0.0
ssL54L
(dp128
g2
F274975.0
sg3
F873.0
sg4
S'GLISAN JR BEN F'
p129
sg6
F71023.0
sg7
F600000.0
sg8
F0.006825938566552901
sg9
F778546.0
sg10
F125978.0
sg11
F384728.0
sg12
F16.0
sg13
F200308.0
sg14
F6.0
sg15
I01
sg16
F1272284.0
sg17
F0.0
sg18
F874.0
sg19
F393818.0
sg20
F52.0
sg21
F0.7647058823529411
ssL55L
(dp130
g2
F272880.0
sg3
F0.0
sg4
S'GOLD JOSEPH'
p131
sg6
F304805.0
sg7
F750000.0
sg8
F0.0
sg9
F877611.0
sg10
F0.0
sg11
F436515.0
sg12
F0.0
sg13
F819288.0
sg14
F0.0
sg15
I00
sg16
F2146973.0
sg17
F0.0
sg18
F0.0
sg19
F441096.0
sg20
F0.0
sg21
F0.0
ssL56L
(dp132
g2
F0.0
sg3
F0.0
sg4
S'GRAMM WENDY L'
p133
sg6
F0.0
sg7
F0.0
sg8
F0.0
sg9
F0.0
sg10
F0.0
sg11
F0.0
sg12
F0.0
sg13
F0.0
sg14
F0.0
sg15
I00
sg16
F119292.0
sg17
F0.0
sg18
F0.0
sg19
F0.0
sg20
F0.0
sg21
F0.0
ssL57L
(dp134
g2
F6615.0
sg3
F0.0
sg4
S'GRAY RODNEY'
p135
sg6
F365625.0
sg7
F0.0
sg8
F0.0
sg9
F0.0
sg10
F0.0
sg11
F0.0
sg12
F0.0
sg13
F680833.0
sg14
F0.0
sg15
I00
sg16
F1146658.0
sg17
F0.0
sg18
F0.0
sg19
F0.0
sg20
F0.0
sg21
F0.0
ssL58L
(dp136
g2
F374125.0
sg3
F4009.0
sg4
S'HAEDICKE MARK E'
p137
sg6
F983346.0
sg7
F1150000.0
sg8
F0.014987714987714987
sg9
F803094.0
sg10
F76169.0
sg11
F608750.0
sg12
F1941.0
sg13
F52382.0
sg14
F61.0
sg15
I00
sg16
F3859065.0
sg17
F-934484.0
sg18
F1847.0
sg19
F524169.0
sg20
F180.0
sg21
F0.08486562942008487
ssL59L
(dp138
g2
F243293.0
sg3
F1045.0
sg4
S'HANNON KEVIN P'
p139
sg6
F1617011.0
sg7
F1500000.0
sg8
F0.019699812382739212
sg9
F6391065.0
sg10
F34039.0
sg11
F5538001.0
sg12
F32.0
sg13
F11350.0
sg14
F21.0
sg15
I01
sg16
F288682.0
sg17
F-3117011.0
sg18
F1035.0
sg19
F853064.0
sg20
F32.0
sg21
F0.5
ssL60L
(dp140
g2
F0.0
sg3
F573.0
sg4
S'HAUG DAVID L'
p141
sg6
F0.0
sg7
F0.0
sg8
F0.01206896551724138
sg9
F2217299.0
sg10
F475.0
sg11
F0.0
sg12
F19.0
sg13
F0.0
sg14
F7.0
sg15
I00
sg16
F475.0
sg17
F0.0
sg18
F471.0
sg19
F2217299.0
sg20
F4.0
sg21
F0.17391304347826086
ssL61L
(dp142
g2
F0.0
sg3
F504.0
sg4
S'HAYES ROBERT E'
p143
sg6
F0.0
sg7
F0.0
sg8
F0.0
sg9
F151418.0
sg10
F0.0
sg11
F0.0
sg12
F12.0
sg13
F0.0
sg14
F0.0
sg15
I00
sg16
F7961.0
sg17
F0.0
sg18
F50.0
sg19
F151418.0
sg20
F16.0
sg21
F0.5714285714285714
ssL62L
(dp144
g2
F0.0
sg3
F2649.0
sg4
S'HAYSLETT RODERICK J'
p145
sg6
F0.0
sg7
F0.0
sg8
F0.014142165984369185
sg9
F346663.0
sg10
F0.0
sg11
F0.0
sg12
F1061.0
sg13
F0.0
sg14
F38.0
sg15
I00
sg16
F0.0
sg17
F0.0
sg18
F571.0
sg19
F346663.0
sg20
F35.0
sg21
F0.03193430656934307
ssL63L
(dp146
g2
F262663.0
sg3
F0.0
sg4
S'HERMANN ROBERT J'
p147
sg6
F150000.0
sg7
F700000.0
sg8
F0.0
sg9
F668132.0
sg10
F48357.0
sg11
F187500.0
sg12
F0.0
sg13
F416441.0
sg14
F0.0
sg15
I00
sg16
F1297461.0
sg17
F-280000.0
sg18
F0.0
sg19
F480632.0
sg20
F0.0
sg21
F0.0
ssL64L
(dp148
g2
F211788.0
sg3
F1320.0
sg4
S'HICKERSON GARY J'
p149
sg6
F69223.0
sg7
F1700000.0
sg8
F0.000757002271006813
sg9
F441096.0
sg10
F98849.0
sg11
F0.0
sg12
F27.0
sg13
F1936.0
sg14
F1.0
sg15
I00
sg16
F2081796.0
sg17
F0.0
sg18
F900.0
sg19
F441096.0
sg20
F40.0
sg21
F0.5970149253731343
ssL65L
(dp150
g2
F0.0
sg3
F0.0
sg4
S'HIRKO JOSEPH'
p151
sg6
F0.0
sg7
F0.0
sg8
F0.0
sg9
F30766064.0
sg10
F77978.0
sg11
F30766064.0
sg12
F0.0
sg13
F2856.0
sg14
F0.0
sg15
I01
sg16
F91093.0
sg17
F0.0
sg18
F0.0
sg19
F0.0
sg20
F0.0
sg21
F0.0
ssL66L
(dp152
g2
F0.0
sg3
F2350.0
sg4
S'HORTON STANLEY C'
p153
sg6
F0.0
sg7
F0.0
sg8
F0.006342494714587738
sg9
F7256648.0
sg10
F0.0
sg11
F5210569.0
sg12
F1073.0
sg13
F0.0
sg14
F15.0
sg15
I00
sg16
F3131860.0
sg17
F0.0
sg18
F1074.0
sg19
F2046079.0
sg20
F44.0
sg21
F0.03939122649955237
ssL67L
(dp154
g2
F0.0
sg3
F719.0
sg4
S'HUGHES JAMES A'
p155
sg6
F0.0
sg7
F0.0
sg8
F0.006906077348066298
sg9
F1118394.0
sg10
F0.0
sg11
F754966.0
sg12
F34.0
sg13
F0.0
sg14
F5.0
sg15
I00
sg16
F0.0
sg17
F0.0
sg18
F589.0
sg19
F363428.0
sg20
F35.0
sg21
F0.5072463768115942
ssL68L
(dp156
g2
F130724.0
sg3
F128.0
sg4
S'HUMPHREY GENE E'
p157
sg6
F0.0
sg7
F0.0
sg8
F0.11724137931034483
sg9
F2282768.0
sg10
F4994.0
sg11
F2282768.0
sg12
F17.0
sg13
F0.0
sg14
F17.0
sg15
I00
sg16
F3100224.0
sg17
F0.0
sg18
F119.0
sg19
F0.0
sg20
F10.0
sg21
F0.37037037037037035
ssL69L
(dp158
g2
F85274.0
sg3
F496.0
sg4
S'IZZO LAWRENCE L'
p159
sg6
F312500.0
sg7
F0.0
sg8
F0.00998003992015968
sg9
F5819980.0
sg10
F28093.0
sg11
F2165172.0
sg12
F19.0
sg13
F1553729.0
sg14
F5.0
sg15
I00
sg16
F1979596.0
sg17
F0.0
sg18
F437.0
sg19
F3654808.0
sg20
F28.0
sg21
F0.5957446808510638
ssL70L
(dp160
g2
F288558.0
sg3
F258.0
sg4
S'JACKSON CHARLENE R'
p161
sg6
F0.0
sg7
F250000.0
sg8
F0.06859205776173286
sg9
F725735.0
sg10
F10181.0
sg11
F185063.0
sg12
F56.0
sg13
F2435.0
sg14
F19.0
sg15
I00
sg16
F551174.0
sg17
F0.0
sg18
F117.0
sg19
F540672.0
sg20
F25.0
sg21
F0.30864197530864196
ssL71L
(dp162
g2
F0.0
sg3
F0.0
sg4
S'JAEDICKE ROBERT'
p163
sg6
F0.0
sg7
F0.0
sg8
F0.0
sg9
F431750.0
sg10
F0.0
sg11
F431750.0
sg12
F0.0
sg13
F0.0
sg14
F0.0
sg15
I00
sg16
F83750.0
sg17
F-25000.0
sg18
F0.0
sg19
F44093.0
sg20
F0.0
sg21
F0.0
ssL72L
(dp164
g2
F275101.0
sg3
F4607.0
sg4
S'KAMINSKI WINCENTY J'
p165
sg6
F323466.0
sg7
F400000.0
sg8
F0.035789033068229385
sg9
F976037.0
sg10
F83585.0
sg11
F850010.0
sg12
F14368.0
sg13
F4669.0
sg14
F171.0
sg15
I00
sg16
F1086821.0
sg17
F0.0
sg18
F583.0
sg19
F126027.0
sg20
F41.0
sg21
F0.0028454438198348255
ssL73L
(dp166
g2
F404338.0
sg3
F12754.0
sg4
S'KEAN STEVEN J'
p167
sg6
F300000.0
sg7
F1000000.0
sg8
F0.029449813560611826
sg9
F6153642.0
sg10
F41953.0
sg11
F2022048.0
sg12
F6759.0
sg13
F1231.0
sg14
F387.0
sg15
I00
sg16
F1747522.0
sg17
F0.0
sg18
F3639.0
sg19
F4131594.0
sg20
F140.0
sg21
F0.02029279605739962
ssL74L
(dp168
g2
F174246.0
sg3
F0.0
sg4
S'KISHKILL JOSEPH G'
p169
sg6
F0.0
sg7
F0.0
sg8
F0.0
sg9
F1034346.0
sg10
F116335.0
sg11
F0.0
sg12
F0.0
sg13
F465357.0
sg14
F0.0
sg15
I00
sg16
F704896.0
sg17
F-51042.0
sg18
F0.0
sg19
F1034346.0
sg20
F0.0
sg21
F0.0
ssL75L
(dp170
g2
F271442.0
sg3
F8305.0
sg4
S'KITCHEN LOUISE'
p171
sg6
F0.0
sg7
F3100000.0
sg8
F0.022826214848805742
sg9
F547143.0
sg10
F5774.0
sg11
F81042.0
sg12
F1728.0
sg13
F93925.0
sg14
F194.0
sg15
I00
sg16
F3471141.0
sg17
F0.0
sg18
F3669.0
sg19
F466101.0
sg20
F251.0
sg21
F0.12683173319858515
ssL76L
(dp172
g2
F309946.0
sg3
F2374.0
sg4
S'KOENIG MARK E'
p173
sg6
F300000.0
sg7
F700000.0
sg8
F0.006278777731268313
sg9
F1920055.0
sg10
F127017.0
sg11
F671737.0
sg12
F61.0
sg13
F150458.0
sg14
F15.0
sg15
I01
sg16
F1587421.0
sg17
F0.0
sg18
F2271.0
sg19
F1248318.0
sg20
F53.0
sg21
F0.4649122807017544
ssL77L
(dp174
g2
F224305.0
sg3
F0.0
sg4
S'KOPPER MICHAEL J'
p175
sg6
F602671.0
sg7
F800000.0
sg8
F0.0
sg9
F985032.0
sg10
F118134.0
sg11
F0.0
sg12
F0.0
sg13
F907502.0
sg14
F0.0
sg15
I01
sg16
F2652612.0
sg17
F0.0
sg18
F0.0
sg19
F985032.0
sg20
F0.0
sg21
F0.0
ssL78L
(dp176
g2
F339288.0
sg3
F7259.0
sg4
S'LAVORATO JOHN J'
p177
sg6
F2035380.0
sg7
F8000000.0
sg8
F0.05358539765319426
sg9
F5167144.0
sg10
F49537.0
sg11
F4158995.0
sg12
F2585.0
sg13
F1552.0
sg14
F411.0
sg15
I00
sg16
F10425757.0
sg17
F0.0
sg18
F3962.0
sg19
F1008149.0
sg20
F528.0
sg21
F0.1696113074204947
ssL79L
(dp178
g2
F1072321.0
sg3
F4273.0
sg4
S'LAY KENNETH L'
p179
sg6
F3600000.0
sg7
F7000000.0
sg8
F0.0037304733038004195
sg9
F49110078.0
sg10
F99832.0
sg11
F34348384.0
sg12
F36.0
sg13
F10359729.0
sg14
F16.0
sg15
I01
sg16
F103559793.0
sg17
F-300000.0
sg18
F2411.0
sg19
F14761694.0
sg20
F123.0
sg21
F0.7735849056603774
ssL80L
(dp180
g2
F273746.0
sg3
F2822.0
sg4
S'LEFF DANIEL P'
p181
sg6
F1387399.0
sg7
F1000000.0
sg8
F0.004936530324400564
sg9
F360528.0
sg10
F0.0
sg11
F0.0
sg12
F63.0
sg13
F3083.0
sg14
F14.0
sg15
I00
sg16
F2664228.0
sg17
F0.0
sg18
F2672.0
sg19
F360528.0
sg20
F67.0
sg21
F0.5153846153846153
ssL81L
(dp182
g2
F0.0
sg3
F0.0
sg4
S'LEMAISTRE CHARLES'
p183
sg6
F0.0
sg7
F0.0
sg8
F0.0
sg9
F412878.0
sg10
F0.0
sg11
F412878.0
sg12
F0.0
sg13
F0.0
sg14
F0.0
sg15
I00
sg16
F87492.0
sg17
F-25000.0
sg18
F0.0
sg19
F0.0
sg20
F0.0
sg21
F0.0
ssL82L
(dp184
g2
F0.0
sg3
F952.0
sg4
S'LEWIS RICHARD'
p185
sg6
F0.0
sg7
F0.0
sg8
F0.0
sg9
F850477.0
sg10
F0.0
sg11
F850477.0
sg12
F26.0
sg13
F0.0
sg14
F0.0
sg15
I00
sg16
F0.0
sg17
F0.0
sg18
F739.0
sg19
F0.0
sg20
F10.0
sg21
F0.2777777777777778
ssL83L
(dp186
g2
F236457.0
sg3
F0.0
sg4
S'LINDHOLM TOD A'
p187
sg6
F175000.0
sg7
F200000.0
sg8
F0.0
sg9
F3064208.0
sg10
F57727.0
sg11
F2549361.0
sg12
F0.0
sg13
F2630.0
sg14
F0.0
sg15
I00
sg16
F875889.0
sg17
F0.0
sg18
F0.0
sg19
F514847.0
sg20
F0.0
sg21
F0.0
ssL84L
(dp188
g2
F0.0
sg3
F0.0
sg4
S'LOWRY CHARLES P'
p189
sg6
F0.0
sg7
F0.0
sg8
F0.0
sg9
F372205.0
sg10
F0.0
sg11
F372205.0
sg12
F0.0
sg13
F0.0
sg14
F0.0
sg15
I00
sg16
F0.0
sg17
F0.0
sg18
F0.0
sg19
F153686.0
sg20
F0.0
sg21
F0.0
ssL85L
(dp190
g2
F349487.0
sg3
F1522.0
sg4
S'MARTIN AMANDA K'
p191
sg6
F5145434.0
sg7
F0.0
sg8
F0.0
sg9
F2070306.0
sg10
F8211.0
sg11
F2070306.0
sg12
F230.0
sg13
F2818454.0
sg14
F0.0
sg15
I00
sg16
F8407016.0
sg17
F0.0
sg18
F477.0
sg19
F0.0
sg20
F8.0
sg21
F0.03361344537815126
ssL86L
(dp192
g2
F0.0
sg3
F1433.0
sg4
S'MCCARTY DANNY J'
p193
sg6
F0.0
sg7
F0.0
sg8
F0.0013937282229965157
sg9
F758931.0
sg10
F0.0
sg11
F664375.0
sg12
F215.0
sg13
F0.0
sg14
F2.0
sg15
I00
sg16
F0.0
sg17
F0.0
sg18
F508.0
sg19
F94556.0
sg20
F25.0
sg21
F0.10416666666666667
ssL87L
(dp194
g2
F263413.0
sg3
F1744.0
sg4
S'MCCLELLAN GEORGE'
p195
sg6
F0.0
sg7
F900000.0
sg8
F0.0
sg9
F947861.0
sg10
F228763.0
sg11
F506765.0
sg12
F49.0
sg13
F51587.0
sg14
F0.0
sg15
I00
sg16
F1318763.0
sg17
F-125000.0
sg18
F1469.0
sg19
F441096.0
sg20
F52.0
sg21
F0.5148514851485149
ssL88L
(dp196
g2
F365038.0
sg3
F3329.0
sg4
S'MCCONNELL MICHAEL S'
p197
sg6
F554422.0
sg7
F1100000.0
sg8
F0.05506670451319898
sg9
F3101279.0
sg10
F81364.0
sg11
F1623010.0
sg12
F2742.0
sg13
F540.0
sg14
F194.0
sg15
I00
sg16
F2101364.0
sg17
F0.0
sg18
F2189.0
sg19
F1478269.0
sg20
F92.0
sg21
F0.032462949894142556
ssL89L
(dp198
g2
F0.0
sg3
F894.0
sg4
S'MCDONALD REBECCA'
p199
sg6
F0.0
sg7
F0.0
sg8
F0.0011173184357541898
sg9
F1691366.0
sg10
F0.0
sg11
F757301.0
sg12
F13.0
sg13
F0.0
sg14
F1.0
sg15
I00
sg16
F0.0
sg17
F0.0
sg18
F720.0
sg19
F934065.0
sg20
F54.0
sg21
F0.8059701492537313
ssL90L
(dp200
g2
F370448.0
sg3
F2355.0
sg4
S'MCMAHON JEFFREY'
p201
sg6
F694862.0
sg7
F2600000.0
sg8
F0.010919781604367913
sg9
F1662855.0
sg10
F137108.0
sg11
F1104054.0
sg12
F48.0
sg13
F297353.0
sg14
F26.0
sg15
I00
sg16
F4099771.0
sg17
F0.0
sg18
F2228.0
sg19
F558801.0
sg20
F58.0
sg21
F0.5471698113207547
ssL91L
(dp202
g2
F0.0
sg3
F0.0
sg4
S'MENDELSOHN JOHN'
p203
sg6
F0.0
sg7
F0.0
sg8
F0.0
sg9
F0.0
sg10
F148.0
sg11
F0.0
sg12
F0.0
sg13
F0.0
sg14
F0.0
sg15
I00
sg16
F148.0
sg17
F-103750.0
sg18
F0.0
sg19
F0.0
sg20
F0.0
sg21
F0.0
ssL92L
(dp204
g2
F365788.0
sg3
F807.0
sg4
S'METTS MARK'
p205
sg6
F0.0
sg7
F600000.0
sg8
F0.0012376237623762376
sg9
F585062.0
sg10
F94299.0
sg11
F0.0
sg12
F29.0
sg13
F1740.0
sg14
F1.0
sg15
I00
sg16
F1061827.0
sg17
F0.0
sg18
F702.0
sg19
F585062.0
sg20
F38.0
sg21
F0.5671641791044776
ssL93L
(dp206
g2
F0.0
sg3
F0.0
sg4
S'MEYER JEROME J'
p207
sg6
F0.0
sg7
F0.0
sg8
F0.0
sg9
F0.0
sg10
F2151.0
sg11
F0.0
sg12
F0.0
sg13
F0.0
sg14
F0.0
sg15
I00
sg16
F2151.0
sg17
F-38346.0
sg18
F0.0
sg19
F0.0
sg20
F0.0
sg21
F0.0
ssL94L
(dp208
g2
F0.0
sg3
F232.0
sg4
S'MEYER ROCKFORD G'
p209
sg6
F0.0
sg7
F0.0
sg8
F0.0
sg9
F955873.0
sg10
F0.0
sg11
F493489.0
sg12
F28.0
sg13
F0.0
sg14
F0.0
sg15
I00
sg16
F1848227.0
sg17
F0.0
sg18
F22.0
sg19
F462384.0
sg20
F0.0
sg21
F0.0
ssL95L
(dp210
g2
F0.0
sg3
F672.0
sg4
S'MORAN MICHAEL P'
p211
sg6
F0.0
sg7
F0.0
sg8
F0.0
sg9
F221141.0
sg10
F0.0
sg11
F59539.0
sg12
F19.0
sg13
F0.0
sg14
F0.0
sg15
I00
sg16
F0.0
sg17
F0.0
sg18
F127.0
sg19
F161602.0
sg20
F0.0
sg21
F0.0
ssL96L
(dp212
g2
F267093.0
sg3
F0.0
sg4
S'MORDAUNT KRISTINA M'
p213
sg6
F0.0
sg7
F325000.0
sg8
F0.0
sg9
F208510.0
sg10
F35018.0
sg11
F0.0
sg12
F0.0
sg13
F1411.0
sg14
F0.0
sg15
I00
sg16
F628522.0
sg17
F0.0
sg18
F0.0
sg19
F208510.0
sg20
F0.0
sg21
F0.0
ssL97L
(dp214
g2
F251654.0
sg3
F136.0
sg4
S'MULLER MARK S'
p215
sg6
F1725545.0
sg7
F1100000.0
sg8
F0.0
sg9
F1416848.0
sg10
F0.0
sg11
F1056320.0
sg12
F16.0
sg13
F947.0
sg14
F0.0
sg15
I00
sg16
F3202070.0
sg17
F-719000.0
sg18
F114.0
sg19
F360528.0
sg20
F12.0
sg21
F0.42857142857142855
ssL98L
(dp216
g2
F229284.0
sg3
F2192.0
sg4
S'MURRAY JULIA H'
p217
sg6
F125000.0
sg7
F400000.0
sg8
F0.0009115770282588879
sg9
F597461.0
sg10
F57580.0
sg11
F400478.0
sg12
F45.0
sg13
F330.0
sg14
F2.0
sg15
I00
sg16
F812194.0
sg17
F0.0
sg18
F395.0
sg19
F196983.0
sg20
F11.0
sg21
F0.19642857142857142
ssL99L
(dp218
g2
F0.0
sg3
F0.0
sg4
S'NOLES JAMES L'
p219
sg6
F0.0
sg7
F0.0
sg8
F0.0
sg9
F368705.0
sg10
F0.0
sg11
F0.0
sg12
F0.0
sg13
F0.0
sg14
F0.0
sg15
I00
sg16
F774401.0
sg17
F0.0
sg18
F0.0
sg19
F463261.0
sg20
F0.0
sg21
F0.0
ssL100L
(dp220
g2
F329078.0
sg3
F1184.0
sg4
S'OLSON CINDY K'
p221
sg6
F100000.0
sg7
F750000.0
sg8
F0.012510425354462052
sg9
F2606763.0
sg10
F63791.0
sg11
F1637034.0
sg12
F52.0
sg13
F972.0
sg14
F15.0
sg15
I00
sg16
F1321557.0
sg17
F0.0
sg18
F856.0
sg19
F969729.0
sg20
F20.0
sg21
F0.2777777777777778
ssL101L
(dp222
g2
F94941.0
sg3
F0.0
sg4
S'OVERDYKE JR JERE C'
p223
sg6
F135836.0
sg7
F0.0
sg8
F0.0
sg9
F7307594.0
sg10
F18834.0
sg11
F5266578.0
sg12
F0.0
sg13
F176.0
sg14
F0.0
sg15
I00
sg16
F249787.0
sg17
F0.0
sg18
F0.0
sg19
F2041016.0
sg20
F0.0
sg21
F0.0
ssL102L
(dp224
g2
F261879.0
sg3
F0.0
sg4
S'PAI LOU L'
p225
sg6
F0.0
sg7
F1000000.0
sg8
F0.0
sg9
F23817930.0
sg10
F32047.0
sg11
F15364167.0
sg12
F0.0
sg13
F1829457.0
sg14
F0.0
sg15
I00
sg16
F3123383.0
sg17
F0.0
sg18
F0.0
sg19
F8453763.0
sg20
F0.0
sg21
F0.0
ssL103L
(dp226
g2
F0.0
sg3
F0.0
sg4
S'PEREIRA PAULO V. FERRAZ'
p227
sg6
F0.0
sg7
F0.0
sg8
F0.0
sg9
F0.0
sg10
F27942.0
sg11
F0.0
sg12
F0.0
sg13
F0.0
sg14
F0.0
sg15
I00
sg16
F27942.0
sg17
F-101250.0
sg18
F0.0
sg19
F0.0
sg20
F0.0
sg21
F0.0
ssL104L
(dp228
g2
F655037.0
sg3
F898.0
sg4
S'PICKERING MARK R'
p229
sg6
F0.0
sg7
F300000.0
sg8
F0.0
sg9
F28798.0
sg10
F31653.0
sg11
F28798.0
sg12
F67.0
sg13
F0.0
sg14
F0.0
sg15
I00
sg16
F1386690.0
sg17
F0.0
sg18
F728.0
sg19
F0.0
sg20
F7.0
sg21
F0.0945945945945946
ssL105L
(dp230
g2
F197091.0
sg3
F1238.0
sg4
S'PIPER GREGORY F'
p231
sg6
F0.0
sg7
F400000.0
sg8
F0.03732503888024884
sg9
F880290.0
sg10
F43057.0
sg11
F880290.0
sg12
F222.0
sg13
F778.0
sg14
F48.0
sg15
I00
sg16
F1737629.0
sg17
F-33333.0
sg18
F742.0
sg19
F409554.0
sg20
F61.0
sg21
F0.21554770318021202
ssL106L
(dp232
g2
F0.0
sg3
F58.0
sg4
S'PIRO JIM'
p233
sg6
F0.0
sg7
F0.0
sg8
F0.01694915254237288
sg9
F47304.0
sg10
F0.0
sg11
F0.0
sg12
F16.0
sg13
F0.0
sg14
F1.0
sg15
I00
sg16
F0.0
sg17
F0.0
sg18
F3.0
sg19
F47304.0
sg20
F0.0
sg21
F0.0
ssL107L
(dp234
g2
F0.0
sg3
F653.0
sg4
S'POWERS WILLIAM'
p235
sg6
F0.0
sg7
F0.0
sg8
F0.0
sg9
F0.0
sg10
F0.0
sg11
F0.0
sg12
F26.0
sg13
F0.0
sg14
F0.0
sg15
I00
sg16
F0.0
sg17
F-17500.0
sg18
F12.0
sg19
F0.0
sg20
F0.0
sg21
F0.0
ssL108L
(dp236
g2
F0.0
sg3
F0.0
sg4
S'PRENTICE JAMES'
p237
sg6
F0.0
sg7
F0.0
sg8
F0.0
sg9
F1095040.0
sg10
F0.0
sg11
F886231.0
sg12
F0.0
sg13
F0.0
sg14
F0.0
sg15
I00
sg16
F564348.0
sg17
F0.0
sg18
F0.0
sg19
F208809.0
sg20
F0.0
sg21
F0.0
ssL109L
(dp238
g2
F96840.0
sg3
F1671.0
sg4
S'REDMOND BRIAN L'
p239
sg6
F0.0
sg7
F0.0
sg8
F0.028488372093023257
sg9
F7890324.0
sg10
F14689.0
sg11
F7509039.0
sg12
F221.0
sg13
F0.0
sg14
F49.0
sg15
I00
sg16
F111529.0
sg17
F0.0
sg18
F1063.0
sg19
F381285.0
sg20
F204.0
sg21
F0.48
ssL110L
(dp240
g2
F76399.0
sg3
F0.0
sg4
S'REYNOLDS LAWRENCE'
p241
sg6
F156250.0
sg7
F100000.0
sg8
F0.0
sg9
F4221891.0
sg10
F8409.0
sg11
F4160672.0
sg12
F0.0
sg13
F202052.0
sg14
F0.0
sg15
I00
sg16
F394475.0
sg17
F-200000.0
sg18
F0.0
sg19
F201483.0
sg20
F0.0
sg21
F0.0
ssL111L
(dp242
g2
F420636.0
sg3
F905.0
sg4
S'RICE KENNETH D'
p243
sg6
F1617011.0
sg7
F1750000.0
sg8
F0.0044004400440044
sg9
F22542539.0
sg10
F46950.0
sg11
F19794175.0
sg12
F18.0
sg13
F174839.0
sg14
F4.0
sg15
I01
sg16
F505050.0
sg17
F-3504386.0
sg18
F864.0
sg19
F2748364.0
sg20
F42.0
sg21
F0.7
ssL112L
(dp244
g2
F249201.0
sg3
F1328.0
sg4
S'RIEKER PAULA H'
p245
sg6
F0.0
sg7
F700000.0
sg8
F0.03488372093023256
sg9
F1918887.0
sg10
F33271.0
sg11
F1635238.0
sg12
F82.0
sg13
F1950.0
sg14
F48.0
sg15
I01
sg16
F1099100.0
sg17
F-100000.0
sg18
F1258.0
sg19
F283649.0
sg20
F35.0
sg21
F0.29914529914529914
ssL113L
(dp246
g2
F0.0
sg3
F0.0
sg4
S'SAVAGE FRANK'
p247
sg6
F0.0
sg7
F0.0
sg8
F0.0
sg9
F0.0
sg10
F0.0
sg11
F0.0
sg12
F0.0
sg13
F0.0
sg14
F0.0
sg15
I00
sg16
F3750.0
sg17
F-121284.0
sg18
F0.0
sg19
F0.0
sg20
F0.0
sg21
F0.0
ssL114L
(dp248
g2
F0.0
sg3
F0.0
sg4
S'SCRIMSHAW MATTHEW'
p249
sg6
F0.0
sg7
F0.0
sg8
F0.0
sg9
F759557.0
sg10
F0.0
sg11
F759557.0
sg12
F0.0
sg13
F0.0
sg14
F0.0
sg15
I00
sg16
F0.0
sg17
F0.0
sg18
F0.0
sg19
F0.0
sg20
F0.0
sg21
F0.0
ssL115L
(dp250
g2
F304110.0
sg3
F3221.0
sg4
S'SHANKMAN JEFFREY A'
p251
sg6
F554422.0
sg7
F2000000.0
sg8
F0.025121065375302662
sg9
F2072035.0
sg10
F178979.0
sg11
F1441898.0
sg12
F2681.0
sg13
F1191.0
sg14
F83.0
sg15
I00
sg16
F3038702.0
sg17
F0.0
sg18
F1730.0
sg19
F630137.0
sg20
F94.0
sg21
F0.033873873873873875
ssL116L
(dp252
g2
F269076.0
sg3
F15149.0
sg4
S'SHAPIRO RICHARD S'
p253
sg6
F0.0
sg7
F650000.0
sg8
F0.004272380701985014
sg9
F987001.0
sg10
F137767.0
sg11
F607837.0
sg12
F1215.0
sg13
F705.0
sg14
F65.0
sg15
I00
sg16
F1057548.0
sg17
F0.0
sg18
F4527.0
sg19
F379164.0
sg20
F74.0
sg21
F0.057408844065166796
ssL117L
(dp254
g2
F248146.0
sg3
F3136.0
sg4
S'SHARP VICTORIA T'
p255
sg6
F422158.0
sg7
F600000.0
sg8
F0.0019096117122851686
sg9
F494136.0
sg10
F116337.0
sg11
F281073.0
sg12
F136.0
sg13
F2401.0
sg14
F6.0
sg15
I00
sg16
F1576511.0
sg17
F0.0
sg18
F2477.0
sg19
F213063.0
sg20
F24.0
sg21
F0.15
ssL118L
(dp256
g2
F211844.0
sg3
F225.0
sg4
S'SHELBY REX'
p257
sg6
F0.0
sg7
F200000.0
sg8
F0.058577405857740586
sg9
F2493616.0
sg10
F22884.0
sg11
F1624396.0
sg12
F39.0
sg13
F1573324.0
sg14
F14.0
sg15
I01
sg16
F2003885.0
sg17
F-4167.0
sg18
F91.0
sg19
F869220.0
sg20
F13.0
sg21
F0.25
ssL119L
(dp258
g2
F0.0
sg3
F613.0
sg4
S'SHERRICK JEFFREY B'
p259
sg6
F0.0
sg7
F0.0
sg8
F0.028526148969889066
sg9
F1832468.0
sg10
F0.0
sg11
F1426469.0
sg12
F25.0
sg13
F0.0
sg14
F18.0
sg15
I00
sg16
F0.0
sg17
F0.0
sg18
F583.0
sg19
F405999.0
sg20
F39.0
sg21
F0.609375
ssL120L
(dp260
g2
F428780.0
sg3
F3187.0
sg4
S'SHERRIFF JOHN R'
p261
sg6
F554422.0
sg7
F1500000.0
sg8
F0.0071651090342679125
sg9
F3128982.0
sg10
F0.0
sg11
F1835558.0
sg12
F92.0
sg13
F1852186.0
sg14
F23.0
sg15
I00
sg16
F4335388.0
sg17
F0.0
sg18
F2103.0
sg19
F1293424.0
sg20
F28.0
sg21
F0.23333333333333334
ssL121L
(dp262
g2
F1111258.0
sg3
F3627.0
sg4
S'SKILLING JEFFREY K'
p263
sg6
F1920000.0
sg7
F5600000.0
sg8
F0.008203445447087777
sg9
F26093672.0
sg10
F29336.0
sg11
F19250000.0
sg12
F108.0
sg13
F22122.0
sg14
F30.0
sg15
I01
sg16
F8682716.0
sg17
F0.0
sg18
F2042.0
sg19
F6843672.0
sg20
F88.0
sg21
F0.4489795918367347
ssL122L
(dp264
g2
F239502.0
sg3
F0.0
sg4
S'STABLER FRANK'
p265
sg6
F0.0
sg7
F500000.0
sg8
F0.0
sg9
F511734.0
sg10
F16514.0
sg11
F0.0
sg12
F0.0
sg13
F356071.0
sg14
F0.0
sg15
I00
sg16
F1112087.0
sg17
F0.0
sg18
F0.0
sg19
F511734.0
sg20
F0.0
sg21
F0.0
ssL123L
(dp266
g2
F162779.0
sg3
F0.0
sg4
S'SULLIVAN-SHAKLOVITZ COLLEEN'
p267
sg6
F554422.0
sg7
F100000.0
sg8
F0.0
sg9
F1362375.0
sg10
F0.0
sg11
F1362375.0
sg12
F0.0
sg13
F162.0
sg14
F0.0
sg15
I00
sg16
F999356.0
sg17
F0.0
sg18
F0.0
sg19
F0.0
sg20
F0.0
sg21
F0.0
ssL124L
(dp268
g2
F257486.0
sg3
F2647.0
sg4
S'SUNDE MARTIN'
p269
sg6
F476451.0
sg7
F700000.0
sg8
F0.004887218045112782
sg9
F698920.0
sg10
F0.0
sg11
F0.0
sg12
F38.0
sg13
F111122.0
sg14
F13.0
sg15
I00
sg16
F1545059.0
sg17
F0.0
sg18
F2565.0
sg19
F698920.0
sg20
F37.0
sg21
F0.49333333333333335
ssL125L
(dp270
g2
F265214.0
sg3
F533.0
sg4
S'TAYLOR MITCHELL S'
p271
sg6
F0.0
sg7
F600000.0
sg8
F0.0
sg9
F3745048.0
sg10
F0.0
sg11
F3181250.0
sg12
F29.0
sg13
F0.0
sg14
F0.0
sg15
I00
sg16
F1092663.0
sg17
F0.0
sg18
F300.0
sg19
F563798.0
sg20
F0.0
sg21
F0.0
ssL126L
(dp272
g2
F0.0
sg3
F0.0
sg4
S'THE TRAVEL AGENCY IN THE PARK'
p273
sg6
F0.0
sg7
F0.0
sg8
F0.0
sg9
F0.0
sg10
F0.0
sg11
F0.0
sg12
F0.0
sg13
F362096.0
sg14
F0.0
sg15
I00
sg16
F362096.0
sg17
F0.0
sg18
F0.0
sg19
F0.0
sg20
F0.0
sg21
F0.0
ssL127L
(dp274
g2
F222093.0
sg3
F266.0
sg4
S'THORN TERENCE H'
p275
sg6
F200000.0
sg7
F0.0
sg8
F0.0
sg9
F4817796.0
sg10
F46145.0
sg11
F4452476.0
sg12
F41.0
sg13
F426629.0
sg14
F0.0
sg15
I00
sg16
F911453.0
sg17
F0.0
sg18
F73.0
sg19
F365320.0
sg20
F0.0
sg21
F0.0
ssL128L
(dp276
g2
F247338.0
sg3
F460.0
sg4
S'TILNEY ELIZABETH A'
p277
sg6
F275000.0
sg7
F300000.0
sg8
F0.02335456475583864
sg9
F1168042.0
sg10
F0.0
sg11
F591250.0
sg12
F19.0
sg13
F152055.0
sg14
F11.0
sg15
I00
sg16
F399393.0
sg17
F-575000.0
sg18
F379.0
sg19
F576792.0
sg20
F10.0
sg21
F0.3448275862068966
ssL129L
(dp278
g2
F288589.0
sg3
F111.0
sg4
S'UMANOFF ADAM S'
p279
sg6
F0.0
sg7
F788750.0
sg8
F0.0
sg9
F0.0
sg10
F53122.0
sg11
F0.0
sg12
F18.0
sg13
F0.0
sg14
F0.0
sg15
I00
sg16
F1130461.0
sg17
F0.0
sg18
F41.0
sg19
F0.0
sg20
F12.0
sg21
F0.4
ssL130L
(dp280
g2
F0.0
sg3
F0.0
sg4
S'URQUHART JOHN A'
p281
sg6
F0.0
sg7
F0.0
sg8
F0.0
sg9
F0.0
sg10
F228656.0
sg11
F0.0
sg12
F0.0
sg13
F0.0
sg14
F0.0
sg15
I00
sg16
F228656.0
sg17
F-36666.0
sg18
F0.0
sg19
F0.0
sg20
F0.0
sg21
F0.0
ssL131L
(dp282
g2
F0.0
sg3
F0.0
sg4
S'WAKEHAM JOHN'
p283
sg6
F0.0
sg7
F0.0
sg8
F0.0
sg9
F0.0
sg10
F103773.0
sg11
F0.0
sg12
F0.0
sg13
F0.0
sg14
F0.0
sg15
I00
sg16
F213071.0
sg17
F0.0
sg18
F0.0
sg19
F0.0
sg20
F0.0
sg21
F0.0
ssL132L
(dp284
g2
F357091.0
sg3
F671.0
sg4
S'WALLS JR ROBERT H'
p285
sg6
F540751.0
sg7
F850000.0
sg8
F0.0
sg9
F5898997.0
sg10
F50936.0
sg11
F4346544.0
sg12
F146.0
sg13
F2.0
sg14
F0.0
sg15
I00
sg16
F1798780.0
sg17
F0.0
sg18
F215.0
sg19
F1552453.0
sg20
F17.0
sg21
F0.10429447852760736
ssL133L
(dp286
g2
F0.0
sg3
F0.0
sg4
S'WALTERS GARETH W'
p287
sg6
F0.0
sg7
F0.0
sg8
F0.0
sg9
F1030329.0
sg10
F33785.0
sg11
F1030329.0
sg12
F0.0
sg13
F0.0
sg14
F0.0
sg15
I00
sg16
F87410.0
sg17
F0.0
sg18
F0.0
sg19
F0.0
sg20
F0.0
sg21
F0.0
ssL134L
(dp288
g2
F259996.0
sg3
F400.0
sg4
S'WASAFF GEORGE'
p289
sg6
F200000.0
sg7
F325000.0
sg8
F0.0171990171990172
sg9
F2056427.0
sg10
F0.0
sg11
F1668260.0
sg12
F30.0
sg13
F1425.0
sg14
F7.0
sg15
I00
sg16
F1034395.0
sg17
F-583325.0
sg18
F337.0
sg19
F388167.0
sg20
F22.0
sg21
F0.4230769230769231
ssL135L
(dp290
g2
F63744.0
sg3
F0.0
sg4
S'WESTFAHL RICHARD K'
p291
sg6
F256191.0
sg7
F0.0
sg8
F0.0
sg9
F384930.0
sg10
F51870.0
sg11
F0.0
sg12
F0.0
sg13
F401130.0
sg14
F0.0
sg15
I00
sg16
F762135.0
sg17
F-10800.0
sg18
F0.0
sg19
F384930.0
sg20
F0.0
sg21
F0.0
ssL136L
(dp292
g2
F0.0
sg3
F0.0
sg4
S'WHALEY DAVID A'
p293
sg6
F0.0
sg7
F0.0
sg8
F0.0
sg9
F98718.0
sg10
F0.0
sg11
F98718.0
sg12
F0.0
sg13
F0.0
sg14
F0.0
sg15
I00
sg16
F0.0
sg17
F0.0
sg18
F0.0
sg19
F0.0
sg20
F0.0
sg21
F0.0
ssL137L
(dp294
g2
F510364.0
sg3
F6019.0
sg4
S'WHALLEY LAWRENCE G'
p295
sg6
F808346.0
sg7
F3000000.0
sg8
F0.003971537315902697
sg9
F6079137.0
sg10
F57838.0
sg11
F3282960.0
sg12
F556.0
sg13
F301026.0
sg14
F24.0
sg15
I00
sg16
F4677574.0
sg17
F0.0
sg18
F3920.0
sg19
F2796177.0
sg20
F186.0
sg21
F0.25067385444743934
ssL138L
(dp296
g2
F317543.0
sg3
F0.0
sg4
S'WHITE JR THOMAS E'
p297
sg6
F0.0
sg7
F450000.0
sg8
F0.0
sg9
F15144123.0
sg10
F81353.0
sg11
F1297049.0
sg12
F0.0
sg13
F1085463.0
sg14
F0.0
sg15
I00
sg16
F1934359.0
sg17
F0.0
sg18
F0.0
sg19
F13847074.0
sg20
F0.0
sg21
F0.0
ssL139L
(dp298
g2
F0.0
sg3
F0.0
sg4
S'WINOKUR JR. HERBERT S'
p299
sg6
F0.0
sg7
F0.0
sg8
F0.0
sg9
F0.0
sg10
F1413.0
sg11
F0.0
sg12
F0.0
sg13
F0.0
sg14
F0.0
sg15
I00
sg16
F84992.0
sg17
F-25000.0
sg18
F0.0
sg19
F0.0
sg20
F0.0
sg21
F0.0
ssL140L
(dp300
g2
F0.0
sg3
F0.0
sg4
S'WODRASKA JOHN'
p301
sg6
F0.0
sg7
F0.0
sg8
F0.0
sg9
F0.0
sg10
F0.0
sg11
F0.0
sg12
F0.0
sg13
F189583.0
sg14
F0.0
sg15
I00
sg16
F189583.0
sg17
F0.0
sg18
F0.0
sg19
F0.0
sg20
F0.0
sg21
F0.0
ssL141L
(dp302
g2
F0.0
sg3
F0.0
sg4
S'WROBEL BRUCE'
p303
sg6
F0.0
sg7
F0.0
sg8
F0.0
sg9
F139130.0
sg10
F0.0
sg11
F139130.0
sg12
F0.0
sg13
F0.0
sg14
F0.0
sg15
I00
sg16
F0.0
sg17
F0.0
sg18
F0.0
sg19
F0.0
sg20
F0.0
sg21
F0.0
ssL142L
(dp304
g2
F158403.0
sg3
F0.0
sg4
S'YEAGER F SCOTT'
p305
sg6
F0.0
sg7
F0.0
sg8
F0.0
sg9
F11884758.0
sg10
F53947.0
sg11
F8308552.0
sg12
F0.0
sg13
F147950.0
sg14
F0.0
sg15
I01
sg16
F360300.0
sg17
F0.0
sg18
F0.0
sg19
F3576206.0
sg20
F0.0
sg21
F0.0
ssL143L
(dp306
g2
F0.0
sg3
F0.0
sg4
S'YEAP SOON'
p307
sg6
F0.0
sg7
F0.0
sg8
F0.0
sg9
F192758.0
sg10
F55097.0
sg11
F192758.0
sg12
F0.0
sg13
F0.0
sg14
F0.0
sg15
I00
sg16
F55097.0
sg17
F0.0
sg18
F0.0
sg19
F0.0
sg20
F0.0
sg21
F0.0
ss.